target datalayout = "e-m:e-p270:32:32-p271:32:32-p272:64:64-i64:64-i128:128-f80:128-n8:16:32:64-S128"
target triple = "x86_64-pc-linux-gnu"

%struct.evconnlistener_ops = type { ptr, ptr, ptr, ptr, ptr, ptr }
%struct.evthread_lock_callbacks = type { i32, i32, ptr, ptr, ptr, ptr }
%struct.evconnlistener = type { ptr, ptr, ptr, ptr, ptr, i32, i16, i32, i8 }

@evthread_lock_fns_ = external global %struct.evthread_lock_callbacks, align 8

; Function Attrs: nounwind uwtable
define i32 @evconnlistener_get_fd(ptr noundef %0) #0 {
  %2 = alloca ptr, align 8
  %3 = alloca i32, align 4
  store ptr %0, ptr %2, align 8
  call void @llvm.lifetime.start.p0(i64 4, ptr %3) #5
  br label %4

4:                                                ; preds = %1
  %5 = load ptr, ptr %2, align 8
  %6 = getelementptr inbounds nuw %struct.evconnlistener, ptr %5, i32 0, i32 1
  %7 = load ptr, ptr %6, align 8
  %8 = icmp ne ptr %7, null
  br i1 %8, label %9, label %15

9:                                                ; preds = %4
  %10 = load ptr, ptr getelementptr inbounds nuw (%struct.evthread_lock_callbacks, ptr @evthread_lock_fns_, i32 0, i32 4), align 8
  %11 = load ptr, ptr %2, align 8
  %12 = getelementptr inbounds nuw %struct.evconnlistener, ptr %11, i32 0, i32 1
  %13 = load ptr, ptr %12, align 8
  %14 = call i32 %10(i32 noundef 0, ptr noundef %13)
  br label %15

15:                                               ; preds = %9, %4
  br label %16

16:                                               ; preds = %15
  br label %17

17:                                               ; preds = %16
  %18 = load ptr, ptr %2, align 8
  %19 = getelementptr inbounds nuw %struct.evconnlistener, ptr %18, i32 0, i32 0
  %20 = load ptr, ptr %19, align 8
  %21 = getelementptr inbounds nuw %struct.evconnlistener_ops, ptr %20, i32 0, i32 4
  %22 = load ptr, ptr %21, align 8
  %23 = load ptr, ptr %2, align 8
  %24 = call i32 %22(ptr noundef %23)
  store i32 %24, ptr %3, align 4
  br label %25

25:                                               ; preds = %17
  %26 = load ptr, ptr %2, align 8
  %27 = getelementptr inbounds nuw %struct.evconnlistener, ptr %26, i32 0, i32 1
  %28 = load ptr, ptr %27, align 8
  %29 = icmp ne ptr %28, null
  br i1 %29, label %30, label %36

30:                                               ; preds = %25
  %31 = load ptr, ptr getelementptr inbounds nuw (%struct.evthread_lock_callbacks, ptr @evthread_lock_fns_, i32 0, i32 5), align 8
  %32 = load ptr, ptr %2, align 8
  %33 = getelementptr inbounds nuw %struct.evconnlistener, ptr %32, i32 0, i32 1
  %34 = load ptr, ptr %33, align 8
  %35 = call i32 %31(i32 noundef 0, ptr noundef %34)
  br label %36

36:                                               ; preds = %30, %25
  br label %37

37:                                               ; preds = %36
  br label %38

38:                                               ; preds = %37
  %39 = load i32, ptr %3, align 4
  call void @llvm.lifetime.end.p0(i64 4, ptr %3) #5
  ret i32 %39
}