; Function Attrs: nounwind uwtable
define i32 @evconnlistener_get_fd(ptr noundef %0) local_unnamed_addr #0 {
  %2 = getelementptr inbounds nuw i8, ptr %0, i64 8
  %3 = load ptr, ptr %2, align 8
  %.not = icmp eq ptr %3, null
  br i1 %.not, label %7, label %4

4:                                                ; preds = %1
  %5 = load ptr, ptr getelementptr inbounds nuw (i8, ptr @evthread_lock_fns_, i64 24), align 8
  %6 = tail call i32 %5(i32 noundef 0, ptr noundef nonnull %3) #6
  br label %7

7:                                                ; preds = %4, %1
  %8 = load ptr, ptr %0, align 8
  %9 = getelementptr inbounds nuw i8, ptr %8, i64 32
  %10 = load ptr, ptr %9, align 8
  %11 = tail call i32 %10(ptr noundef nonnull %0) #6
  %12 = load ptr, ptr %2, align 8
  %.not7 = icmp eq ptr %12, null
  br i1 %.not7, label %16, label %13

13:                                               ; preds = %7
  %14 = load ptr, ptr getelementptr inbounds nuw (i8, ptr @evthread_lock_fns_, i64 32), align 8
  %15 = tail call i32 %14(i32 noundef 0, ptr noundef nonnull %12) #6
  br label %16

16:                                               ; preds = %13, %7
  ret i32 %11
}